; Function Attrs: nounwind sspstrong uwtable
define internal fastcc nonnull ptr @gzfile_read_raw_until_zero(ptr noundef captures(none) %0) unnamed_addr #0 {
  %2 = alloca %struct.read_raw_arg, align 8
  %3 = alloca i64, align 8
  %4 = alloca ptr, align 8
  call void @llvm.lifetime.start.p0(i64 8, ptr nonnull %3) #18
  %5 = getelementptr inbounds nuw i8, ptr %0, i64 16
  %6 = getelementptr i8, ptr %0, i64 152
  %7 = getelementptr inbounds nuw i8, ptr %2, i64 8
  %8 = getelementptr inbounds nuw i8, ptr %2, i64 16
  %9 = ptrtoint ptr %2 to i64
  br label %zstream_append_input.exit

zstream_append_input.exit:                        ; preds = %zstream_append_input.exit.backedge, %1
  %.0 = phi i64 [ 0, %1 ], [ %32, %zstream_append_input.exit.backedge ]
  %10 = load i64, ptr %5, align 8, !tbaa !154
  %11 = inttoptr i64 %10 to ptr
  %12 = load i64, ptr %11, align 8, !tbaa !16, !noalias !292
  %13 = and i64 %12, 8192
  %.not.i.i = icmp eq i64 %13, 0
  %14 = getelementptr inbounds nuw i8, ptr %11, i64 24
  br i1 %.not.i.i, label %RSTRING_PTR.exit, label %15

15:                                               ; preds = %zstream_append_input.exit
  %.sroa.2.0.copyload.i = load ptr, ptr %14, align 8
  br label %RSTRING_PTR.exit

RSTRING_PTR.exit:                                 ; preds = %zstream_append_input.exit, %15
  %.sroa.2.0.i = phi ptr [ %.sroa.2.0.copyload.i, %15 ], [ %14, %zstream_append_input.exit ]
  %16 = getelementptr inbounds i8, ptr %.sroa.2.0.i, i64 %.0
  %17 = getelementptr inbounds nuw i8, ptr %11, i64 16
  %18 = load i64, ptr %17, align 8, !tbaa !21
  %19 = sub nsw i64 %18, %.0
  %20 = call ptr @memchr(ptr noundef %16, i32 noundef 0, i64 noundef %19) #22
  %.not = icmp eq ptr %20, null
  br i1 %.not, label %21, label %54

21:                                               ; preds = %RSTRING_PTR.exit
  %.val = load i64, ptr %6, align 8, !tbaa !117
  call void @llvm.lifetime.start.p0(i64 24, ptr nonnull %2) #18
  store i64 %.val, ptr %2, align 8, !tbaa !255
  store i64 4097, ptr %7, align 8, !tbaa !149
  store i64 4, ptr %8, align 8, !tbaa !149
  %22 = load i64, ptr @rb_eEOFError, align 8, !tbaa !6
  %23 = load i64, ptr @rb_eNoMethodError, align 8, !tbaa !6
  %24 = call i64 (ptr, i64, ptr, i64, ...) @rb_rescue2(ptr noundef nonnull @gzfile_read_raw_partial, i64 noundef %9, ptr noundef nonnull @gzfile_read_raw_rescue, i64 noundef %9, i64 noundef %22, i64 noundef %23, i64 noundef 0) #18
  call void @llvm.lifetime.end.p0(i64 24, ptr nonnull %2) #18
  store i64 %24, ptr %3, align 8, !tbaa !6
  %25 = icmp eq i64 %24, 4
  br i1 %25, label %26, label %28

26:                                               ; preds = %21
  %27 = load i64, ptr @cGzError, align 8, !tbaa !6
  call void (i64, ptr, ...) @rb_raise(i64 noundef %27, ptr noundef nonnull @.str.167) #19
  unreachable

28:                                               ; preds = %21
  %29 = load i64, ptr %5, align 8, !tbaa !154
  %30 = inttoptr i64 %29 to ptr
  %31 = getelementptr inbounds nuw i8, ptr %30, i64 16
  %32 = load i64, ptr %31, align 8, !tbaa !21
  call void @llvm.lifetime.start.p0(i64 8, ptr nonnull %4) #18
  store ptr %3, ptr %4, align 8, !tbaa !10
  call void asm sideeffect "", "*m,~{dirflag},~{fpsr},~{flags}"(ptr nonnull elementtype(ptr) %4) #18, !srcloc !295
  %33 = load ptr, ptr %4, align 8, !tbaa !10
  call void @llvm.lifetime.end.p0(i64 8, ptr nonnull %4) #18
  %34 = load volatile i64, ptr %33, align 8, !tbaa !6
  %35 = load i64, ptr %3, align 8, !tbaa !6
  %36 = inttoptr i64 %35 to ptr
  %37 = load i64, ptr %36, align 8, !tbaa !16, !noalias !296
  %38 = and i64 %37, 8192
  %.not.i.i10 = icmp eq i64 %38, 0
  %39 = getelementptr inbounds nuw i8, ptr %36, i64 24
  br i1 %.not.i.i10, label %RSTRING_PTR.exit13, label %40

40:                                               ; preds = %28
  %.sroa.2.0.copyload.i11 = load ptr, ptr %39, align 8
  br label %RSTRING_PTR.exit13

RSTRING_PTR.exit13:                               ; preds = %28, %40
  %.sroa.2.0.i12 = phi ptr [ %.sroa.2.0.copyload.i11, %40 ], [ %39, %28 ]
  %41 = getelementptr inbounds nuw i8, ptr %36, i64 16
  %42 = load i64, ptr %41, align 8, !tbaa !21
  %43 = icmp slt i64 %42, 1
  br i1 %43, label %zstream_append_input.exit.backedge, label %44

zstream_append_input.exit.backedge:               ; preds = %RSTRING_PTR.exit13, %47, %52
  br label %zstream_append_input.exit

44:                                               ; preds = %RSTRING_PTR.exit13
  %45 = load i64, ptr %5, align 8, !tbaa !51
  %46 = icmp eq i64 %45, 4
  br i1 %46, label %47, label %52

47:                                               ; preds = %44
  %48 = call i64 @rb_str_buf_new(i64 noundef %42) #18
  store i64 %48, ptr %5, align 8, !tbaa !51
  %49 = call i64 @rb_str_cat(i64 noundef %48, ptr noundef %.sroa.2.0.i12, i64 noundef %42) #18
  %50 = load i64, ptr %5, align 8, !tbaa !51
  %51 = call i64 @rb_obj_hide(i64 noundef %50) #18
  br label %zstream_append_input.exit.backedge

52:                                               ; preds = %44
  %53 = call i64 @rb_str_cat(i64 noundef %45, ptr noundef %.sroa.2.0.i12, i64 noundef %42) #18
  br label %zstream_append_input.exit.backedge

54:                                               ; preds = %RSTRING_PTR.exit
  call void @llvm.lifetime.end.p0(i64 8, ptr nonnull %3) #18
  ret ptr %20
}